; Function Attrs: mustprogress uwtable
define hidden noundef zeroext i1 @_ZNK11OpenImageIO6v3_1_09HeifInput10valid_fileERKNSt7__cxx1112basic_stringIcSt11char_traitsIcESaIcEEE(ptr nonnull readnone align 8 captures(none) %0, ptr noundef nonnull readonly align 8 captures(none) dereferenceable(32) %1) unnamed_addr #6 align 2 {
  %3 = alloca [12 x i8], align 1
  %4 = alloca %"class.OpenImageIO::v3_1_0::basic_string_view", align 8
  call void @llvm.lifetime.start.p0(i64 12, ptr nonnull %3) #28
  %5 = load ptr, ptr %1, align 8, !tbaa !76
  store ptr %5, ptr %4, align 8, !tbaa !77
  %6 = getelementptr inbounds nuw i8, ptr %4, i64 8
  %7 = getelementptr inbounds nuw i8, ptr %1, i64 8
  %8 = load i64, ptr %7, align 8, !tbaa !11
  store i64 %8, ptr %6, align 8, !tbaa !79
  %9 = call noundef i64 @_ZN11OpenImageIO6v3_1_010Filesystem10read_bytesENS0_17basic_string_viewIcSt11char_traitsIcEEEPvmm(ptr noundef nonnull %4, ptr noundef nonnull %3, i64 noundef 12, i64 noundef 0)
  %.not = icmp eq i64 %9, 12
  br i1 %.not, label %10, label %14

10:                                               ; preds = %2
  %11 = call i32 @heif_check_filetype(ptr noundef nonnull %3, i32 noundef 12)
  %12 = and i32 %11, -3
  %13 = icmp ne i32 %12, 0
  br label %14

14:                                               ; preds = %2, %10
  %.0 = phi i1 [ %13, %10 ], [ false, %2 ]
  call void @llvm.lifetime.end.p0(i64 12, ptr nonnull %3) #28
  ret i1 %.0
}